target datalayout = "e-m:e-p270:32:32-p271:32:32-p272:64:64-i64:64-i128:128-f80:128-n8:16:32:64-S128"
target triple = "x86_64-pc-linux-gnu"

%struct.Map_TimeStruct_t_ = type { float, float, float }
%struct.Map_ManStruct_t_ = type { ptr, i32, ptr, i32, ptr, i32, i32, ptr, ptr, ptr, ptr, ptr, ptr, ptr, ptr, i32, i32, i32, i32, float, float, float, float, i32, i32, float, i32, i32, i32, i32, ptr, [6 x [2 x i32]], [10 x [32 x i32]], [32 x i32], [32 x i32], ptr, ptr, ptr, ptr, ptr, ptr, i32, i32, i32, i32, i32, i32, i64, i64, i64, i64, i64, i64, i64, i64, i64, i64, i64 }
%struct.Map_NodeStruct_t_ = type { ptr, ptr, i32, i32, i32, i32, [3 x i32], [3 x float], float, ptr, ptr, ptr, ptr, [2 x %struct.Map_TimeStruct_t_], [2 x %struct.Map_TimeStruct_t_], [2 x ptr], ptr, ptr, ptr }
%struct.Map_SuperLibStruct_t_ = type { ptr, ptr, i32, i32, i32, i32, i32, ptr, ptr, ptr, [6 x [2 x i32]], [2 x i32], ptr, %struct.Map_TimeStruct_t_, float, float, ptr, ptr, ptr, ptr }
%struct.Scl_Con_t_ = type { ptr, ptr, ptr, i32, i32, i32, i32, i32, %struct.Vec_Ptr_t_, %struct.Vec_Ptr_t_, %struct.Vec_Int_t_, %struct.Vec_Int_t_, %struct.Vec_Int_t_, %struct.Vec_Int_t_, %struct.Vec_Int_t_, ptr, ptr }
%struct.Vec_Ptr_t_ = type { i32, i32, ptr }
%struct.Vec_Int_t_ = type { i32, i32, ptr }

; Function Attrs: inlinehint nounwind uwtable
define internal i32 @Vec_IntEntry(ptr noundef %0, i32 noundef %1) #5 {
  %3 = alloca ptr, align 8
  %4 = alloca i32, align 4
  store ptr %0, ptr %3, align 8, !tbaa !98
  store i32 %1, ptr %4, align 4, !tbaa !19
  %5 = load ptr, ptr %3, align 8, !tbaa !98
  %6 = getelementptr inbounds nuw %struct.Vec_Int_t_, ptr %5, i32 0, i32 2
  %7 = load ptr, ptr %6, align 8, !tbaa !100
  %8 = load i32, ptr %4, align 4, !tbaa !19
  %9 = sext i32 %8 to i64
  %10 = getelementptr inbounds i32, ptr %7, i64 %9
  %11 = load i32, ptr %10, align 4, !tbaa !19
  ret i32 %11
}

; Function Attrs: inlinehint nounwind uwtable
define internal i32 @Scl_ConGetInArr_(ptr noundef %0, i32 noundef %1) #5 {
  %3 = alloca ptr, align 8
  %4 = alloca i32, align 4
  store ptr %0, ptr %3, align 8, !tbaa !96
  store i32 %1, ptr %4, align 4, !tbaa !19
  %5 = load ptr, ptr %3, align 8, !tbaa !96
  %6 = getelementptr inbounds nuw %struct.Scl_Con_t_, ptr %5, i32 0, i32 10
  %7 = load i32, ptr %4, align 4, !tbaa !19
  %8 = call i32 @Vec_IntEntry(ptr noundef %6, i32 noundef %7)
  ret i32 %8
}

; Function Attrs: inlinehint nounwind uwtable
define internal float @Scl_Int2Flt(i32 noundef %0) #5 {
  %2 = alloca i32, align 4
  store i32 %0, ptr %2, align 4, !tbaa !19
  %3 = load i32, ptr %2, align 4, !tbaa !19
  %4 = sitofp i32 %3 to float
  %5 = fdiv float %4, 1.000000e+03
  ret float %5
}

; Function Attrs: inlinehint nounwind uwtable
define internal i32 @Scl_ConGetInArr(i32 noundef %0) #5 {
  %2 = alloca i32, align 4
  store i32 %0, ptr %2, align 4, !tbaa !19
  %3 = call ptr (...) @Scl_ConReadMan()
  %4 = load i32, ptr %2, align 4, !tbaa !19
  %5 = call i32 @Scl_ConGetInArr_(ptr noundef %3, i32 noundef %4)
  ret i32 %5
}

; Function Attrs: inlinehint nounwind uwtable
define internal float @Scl_ConGetInArrFloat(i32 noundef %0) #5 {
  %2 = alloca i32, align 4
  store i32 %0, ptr %2, align 4, !tbaa !19
  %3 = load i32, ptr %2, align 4, !tbaa !19
  %4 = call i32 @Scl_ConGetInArr(i32 noundef %3)
  %5 = call float @Scl_Int2Flt(i32 noundef %4)
  ret float %5
}

; Function Attrs: inlinehint nounwind uwtable
define internal i32 @Scl_ConIsRunning() #5 {
  %1 = call ptr (...) @Scl_ConReadMan()
  %2 = icmp ne ptr %1, null
  %3 = zext i1 %2 to i32
  ret i32 %3
}

; Function Attrs: nounwind uwtable
define void @Map_MappingSetPiArrivalTimes(ptr noundef %0) #0 {
  %2 = alloca ptr, align 8
  %3 = alloca ptr, align 8
  %4 = alloca i32, align 4
  %5 = alloca float, align 4
  store ptr %0, ptr %2, align 8, !tbaa !17
  call void @llvm.lifetime.start.p0(i64 8, ptr %3) #7
  call void @llvm.lifetime.start.p0(i64 4, ptr %4) #7
  store i32 0, ptr %4, align 4, !tbaa !19
  br label %6

6:                                                ; preds = %181, %1
  %7 = load i32, ptr %4, align 4, !tbaa !19
  %8 = load ptr, ptr %2, align 8, !tbaa !17
  %9 = getelementptr inbounds nuw %struct.Map_ManStruct_t_, ptr %8, i32 0, i32 3
  %10 = load i32, ptr %9, align 8, !tbaa !65
  %11 = icmp slt i32 %7, %10
  br i1 %11, label %12, label %184

12:                                               ; preds = %6
  %13 = load ptr, ptr %2, align 8, !tbaa !17
  %14 = getelementptr inbounds nuw %struct.Map_ManStruct_t_, ptr %13, i32 0, i32 2
  %15 = load ptr, ptr %14, align 8, !tbaa !66
  %16 = load i32, ptr %4, align 4, !tbaa !19
  %17 = sext i32 %16 to i64
  %18 = getelementptr inbounds ptr, ptr %15, i64 %17
  %19 = load ptr, ptr %18, align 8, !tbaa !39
  store ptr %19, ptr %3, align 8, !tbaa !39
  %20 = call i32 @Scl_ConIsRunning()
  %21 = icmp ne i32 %20, 0
  br i1 %21, label %22, label %40

22:                                               ; preds = %12
  call void @llvm.lifetime.start.p0(i64 4, ptr %5) #7
  %23 = load i32, ptr %4, align 4, !tbaa !19
  %24 = call float @Scl_ConGetInArrFloat(i32 noundef %23)
  store float %24, ptr %5, align 4, !tbaa !42
  %25 = load float, ptr %5, align 4, !tbaa !42
  %26 = load ptr, ptr %3, align 8, !tbaa !39
  %27 = getelementptr inbounds nuw %struct.Map_NodeStruct_t_, ptr %26, i32 0, i32 13
  %28 = getelementptr inbounds [2 x %struct.Map_TimeStruct_t_], ptr %27, i64 0, i64 1
  %29 = getelementptr inbounds nuw %struct.Map_TimeStruct_t_, ptr %28, i32 0, i32 1
  store float %25, ptr %29, align 4, !tbaa !67
  %30 = load float, ptr %5, align 4, !tbaa !42
  %31 = load ptr, ptr %3, align 8, !tbaa !39
  %32 = getelementptr inbounds nuw %struct.Map_NodeStruct_t_, ptr %31, i32 0, i32 13
  %33 = getelementptr inbounds [2 x %struct.Map_TimeStruct_t_], ptr %32, i64 0, i64 1
  %34 = getelementptr inbounds nuw %struct.Map_TimeStruct_t_, ptr %33, i32 0, i32 0
  store float %30, ptr %34, align 4, !tbaa !68
  %35 = load float, ptr %5, align 4, !tbaa !42
  %36 = load ptr, ptr %3, align 8, !tbaa !39
  %37 = getelementptr inbounds nuw %struct.Map_NodeStruct_t_, ptr %36, i32 0, i32 13
  %38 = getelementptr inbounds [2 x %struct.Map_TimeStruct_t_], ptr %37, i64 0, i64 1
  %39 = getelementptr inbounds nuw %struct.Map_TimeStruct_t_, ptr %38, i32 0, i32 2
  store float %35, ptr %39, align 4, !tbaa !56
  call void @llvm.lifetime.end.p0(i64 4, ptr %5) #7
  br label %50

40:                                               ; preds = %12
  %41 = load ptr, ptr %3, align 8, !tbaa !39
  %42 = getelementptr inbounds nuw %struct.Map_NodeStruct_t_, ptr %41, i32 0, i32 13
  %43 = getelementptr inbounds [2 x %struct.Map_TimeStruct_t_], ptr %42, i64 0, i64 1
  %44 = load ptr, ptr %2, align 8, !tbaa !17
  %45 = getelementptr inbounds nuw %struct.Map_ManStruct_t_, ptr %44, i32 0, i32 12
  %46 = load ptr, ptr %45, align 8, !tbaa !69
  %47 = load i32, ptr %4, align 4, !tbaa !19
  %48 = sext i32 %47 to i64
  %49 = getelementptr inbounds %struct.Map_TimeStruct_t_, ptr %46, i64 %48
  call void @llvm.memcpy.p0.p0.i64(ptr align 4 %43, ptr align 4 %49, i64 12, i1 false), !tbaa.struct !70
  br label %50

50:                                               ; preds = %40, %22
  %51 = load ptr, ptr %2, align 8, !tbaa !17
  %52 = getelementptr inbounds nuw %struct.Map_ManStruct_t_, ptr %51, i32 0, i32 10
  %53 = load ptr, ptr %52, align 8, !tbaa !71
  %54 = icmp ne ptr %53, null
  br i1 %54, label %55, label %65

55:                                               ; preds = %50
  %56 = load ptr, ptr %2, align 8, !tbaa !17
  %57 = getelementptr inbounds nuw %struct.Map_ManStruct_t_, ptr %56, i32 0, i32 10
  %58 = load ptr, ptr %57, align 8, !tbaa !71
  %59 = load ptr, ptr %3, align 8, !tbaa !39
  %60 = getelementptr inbounds nuw %struct.Map_NodeStruct_t_, ptr %59, i32 0, i32 2
  %61 = load i32, ptr %60, align 8, !tbaa !72
  %62 = sext i32 %61 to i64
  %63 = getelementptr inbounds float, ptr %58, i64 %62
  %64 = load float, ptr %63, align 4, !tbaa !42
  br label %66

65:                                               ; preds = %50
  br label %66

66:                                               ; preds = %65, %55
  %67 = phi float [ %64, %55 ], [ 0.000000e+00, %65 ]
  %68 = load ptr, ptr %3, align 8, !tbaa !39
  %69 = getelementptr inbounds nuw %struct.Map_NodeStruct_t_, ptr %68, i32 0, i32 13
  %70 = getelementptr inbounds [2 x %struct.Map_TimeStruct_t_], ptr %69, i64 0, i64 1
  %71 = getelementptr inbounds nuw %struct.Map_TimeStruct_t_, ptr %70, i32 0, i32 0
  %72 = load float, ptr %71, align 4, !tbaa !68
  %73 = fadd float %72, %67
  store float %73, ptr %71, align 4, !tbaa !68
  %74 = load ptr, ptr %2, align 8, !tbaa !17
  %75 = getelementptr inbounds nuw %struct.Map_ManStruct_t_, ptr %74, i32 0, i32 10
  %76 = load ptr, ptr %75, align 8, !tbaa !71
  %77 = icmp ne ptr %76, null
  br i1 %77, label %78, label %88

78:                                               ; preds = %66
  %79 = load ptr, ptr %2, align 8, !tbaa !17
  %80 = getelementptr inbounds nuw %struct.Map_ManStruct_t_, ptr %79, i32 0, i32 10
  %81 = load ptr, ptr %80, align 8, !tbaa !71
  %82 = load ptr, ptr %3, align 8, !tbaa !39
  %83 = getelementptr inbounds nuw %struct.Map_NodeStruct_t_, ptr %82, i32 0, i32 2
  %84 = load i32, ptr %83, align 8, !tbaa !72
  %85 = sext i32 %84 to i64
  %86 = getelementptr inbounds float, ptr %81, i64 %85
  %87 = load float, ptr %86, align 4, !tbaa !42
  br label %89

88:                                               ; preds = %66
  br label %89

89:                                               ; preds = %88, %78
  %90 = phi float [ %87, %78 ], [ 0.000000e+00, %88 ]
  %91 = load ptr, ptr %3, align 8, !tbaa !39
  %92 = getelementptr inbounds nuw %struct.Map_NodeStruct_t_, ptr %91, i32 0, i32 13
  %93 = getelementptr inbounds [2 x %struct.Map_TimeStruct_t_], ptr %92, i64 0, i64 1
  %94 = getelementptr inbounds nuw %struct.Map_TimeStruct_t_, ptr %93, i32 0, i32 1
  %95 = load float, ptr %94, align 4, !tbaa !67
  %96 = fadd float %95, %90
  store float %96, ptr %94, align 4, !tbaa !67
  %97 = load ptr, ptr %2, align 8, !tbaa !17
  %98 = getelementptr inbounds nuw %struct.Map_ManStruct_t_, ptr %97, i32 0, i32 10
  %99 = load ptr, ptr %98, align 8, !tbaa !71
  %100 = icmp ne ptr %99, null
  br i1 %100, label %101, label %111

101:                                              ; preds = %89
  %102 = load ptr, ptr %2, align 8, !tbaa !17
  %103 = getelementptr inbounds nuw %struct.Map_ManStruct_t_, ptr %102, i32 0, i32 10
  %104 = load ptr, ptr %103, align 8, !tbaa !71
  %105 = load ptr, ptr %3, align 8, !tbaa !39
  %106 = getelementptr inbounds nuw %struct.Map_NodeStruct_t_, ptr %105, i32 0, i32 2
  %107 = load i32, ptr %106, align 8, !tbaa !72
  %108 = sext i32 %107 to i64
  %109 = getelementptr inbounds float, ptr %104, i64 %108
  %110 = load float, ptr %109, align 4, !tbaa !42
  br label %112

111:                                              ; preds = %89
  br label %112

112:                                              ; preds = %111, %101
  %113 = phi float [ %110, %101 ], [ 0.000000e+00, %111 ]
  %114 = load ptr, ptr %3, align 8, !tbaa !39
  %115 = getelementptr inbounds nuw %struct.Map_NodeStruct_t_, ptr %114, i32 0, i32 13
  %116 = getelementptr inbounds [2 x %struct.Map_TimeStruct_t_], ptr %115, i64 0, i64 1
  %117 = getelementptr inbounds nuw %struct.Map_TimeStruct_t_, ptr %116, i32 0, i32 2
  %118 = load float, ptr %117, align 4, !tbaa !56
  %119 = fadd float %118, %113
  store float %119, ptr %117, align 4, !tbaa !56
  %120 = load ptr, ptr %3, align 8, !tbaa !39
  %121 = getelementptr inbounds nuw %struct.Map_NodeStruct_t_, ptr %120, i32 0, i32 13
  %122 = getelementptr inbounds [2 x %struct.Map_TimeStruct_t_], ptr %121, i64 0, i64 1
  %123 = getelementptr inbounds nuw %struct.Map_TimeStruct_t_, ptr %122, i32 0, i32 1
  %124 = load float, ptr %123, align 4, !tbaa !67
  %125 = load ptr, ptr %2, align 8, !tbaa !17
  %126 = getelementptr inbounds nuw %struct.Map_ManStruct_t_, ptr %125, i32 0, i32 30
  %127 = load ptr, ptr %126, align 8, !tbaa !73
  %128 = getelementptr inbounds nuw %struct.Map_SuperLibStruct_t_, ptr %127, i32 0, i32 13
  %129 = getelementptr inbounds nuw %struct.Map_TimeStruct_t_, ptr %128, i32 0, i32 0
  %130 = load float, ptr %129, align 8, !tbaa !74
  %131 = fadd float %124, %130
  %132 = load ptr, ptr %3, align 8, !tbaa !39
  %133 = getelementptr inbounds nuw %struct.Map_NodeStruct_t_, ptr %132, i32 0, i32 13
  %134 = getelementptr inbounds [2 x %struct.Map_TimeStruct_t_], ptr %133, i64 0, i64 0
  %135 = getelementptr inbounds nuw %struct.Map_TimeStruct_t_, ptr %134, i32 0, i32 0
  store float %131, ptr %135, align 8, !tbaa !68
  %136 = load ptr, ptr %3, align 8, !tbaa !39
  %137 = getelementptr inbounds nuw %struct.Map_NodeStruct_t_, ptr %136, i32 0, i32 13
  %138 = getelementptr inbounds [2 x %struct.Map_TimeStruct_t_], ptr %137, i64 0, i64 1
  %139 = getelementptr inbounds nuw %struct.Map_TimeStruct_t_, ptr %138, i32 0, i32 0
  %140 = load float, ptr %139, align 4, !tbaa !68
  %141 = load ptr, ptr %2, align 8, !tbaa !17
  %142 = getelementptr inbounds nuw %struct.Map_ManStruct_t_, ptr %141, i32 0, i32 30
  %143 = load ptr, ptr %142, align 8, !tbaa !73
  %144 = getelementptr inbounds nuw %struct.Map_SuperLibStruct_t_, ptr %143, i32 0, i32 13
  %145 = getelementptr inbounds nuw %struct.Map_TimeStruct_t_, ptr %144, i32 0, i32 1
  %146 = load float, ptr %145, align 4, !tbaa !80
  %147 = fadd float %140, %146
  %148 = load ptr, ptr %3, align 8, !tbaa !39
  %149 = getelementptr inbounds nuw %struct.Map_NodeStruct_t_, ptr %148, i32 0, i32 13
  %150 = getelementptr inbounds [2 x %struct.Map_TimeStruct_t_], ptr %149, i64 0, i64 0
  %151 = getelementptr inbounds nuw %struct.Map_TimeStruct_t_, ptr %150, i32 0, i32 1
  store float %147, ptr %151, align 4, !tbaa !67
  %152 = load ptr, ptr %3, align 8, !tbaa !39
  %153 = getelementptr inbounds nuw %struct.Map_NodeStruct_t_, ptr %152, i32 0, i32 13
  %154 = getelementptr inbounds [2 x %struct.Map_TimeStruct_t_], ptr %153, i64 0, i64 0
  %155 = getelementptr inbounds nuw %struct.Map_TimeStruct_t_, ptr %154, i32 0, i32 0
  %156 = load float, ptr %155, align 8, !tbaa !68
  %157 = load ptr, ptr %3, align 8, !tbaa !39
  %158 = getelementptr inbounds nuw %struct.Map_NodeStruct_t_, ptr %157, i32 0, i32 13
  %159 = getelementptr inbounds [2 x %struct.Map_TimeStruct_t_], ptr %158, i64 0, i64 0
  %160 = getelementptr inbounds nuw %struct.Map_TimeStruct_t_, ptr %159, i32 0, i32 1
  %161 = load float, ptr %160, align 4, !tbaa !67
  %162 = fcmp ogt float %156, %161
  br i1 %162, label %163, label %169

163:                                              ; preds = %112
  %164 = load ptr, ptr %3, align 8, !tbaa !39
  %165 = getelementptr inbounds nuw %struct.Map_NodeStruct_t_, ptr %164, i32 0, i32 13
  %166 = getelementptr inbounds [2 x %struct.Map_TimeStruct_t_], ptr %165, i64 0, i64 0
  %167 = getelementptr inbounds nuw %struct.Map_TimeStruct_t_, ptr %166, i32 0, i32 0
  %168 = load float, ptr %167, align 8, !tbaa !68
  br label %175

169:                                              ; preds = %112
  %170 = load ptr, ptr %3, align 8, !tbaa !39
  %171 = getelementptr inbounds nuw %struct.Map_NodeStruct_t_, ptr %170, i32 0, i32 13
  %172 = getelementptr inbounds [2 x %struct.Map_TimeStruct_t_], ptr %171, i64 0, i64 0
  %173 = getelementptr inbounds nuw %struct.Map_TimeStruct_t_, ptr %172, i32 0, i32 1
  %174 = load float, ptr %173, align 4, !tbaa !67
  br label %175

175:                                              ; preds = %169, %163
  %176 = phi float [ %168, %163 ], [ %174, %169 ]
  %177 = load ptr, ptr %3, align 8, !tbaa !39
  %178 = getelementptr inbounds nuw %struct.Map_NodeStruct_t_, ptr %177, i32 0, i32 13
  %179 = getelementptr inbounds [2 x %struct.Map_TimeStruct_t_], ptr %178, i64 0, i64 0
  %180 = getelementptr inbounds nuw %struct.Map_TimeStruct_t_, ptr %179, i32 0, i32 2
  store float %176, ptr %180, align 8, !tbaa !56
  br label %181

181:                                              ; preds = %175
  %182 = load i32, ptr %4, align 4, !tbaa !19
  %183 = add nsw i32 %182, 1
  store i32 %183, ptr %4, align 4, !tbaa !19
  br label %6, !llvm.loop !81

184:                                              ; preds = %6
  call void @llvm.lifetime.end.p0(i64 4, ptr %4) #7
  call void @llvm.lifetime.end.p0(i64 8, ptr %3) #7
  ret void
}