; Function Attrs: nounwind uwtable
define void @Map_MappingSetPiArrivalTimes(ptr noundef readonly captures(none) %0) local_unnamed_addr #2 {
  %2 = getelementptr inbounds nuw i8, ptr %0, i64 24
  %3 = load i32, ptr %2, align 8, !tbaa !60
  %4 = icmp sgt i32 %3, 0
  br i1 %4, label %.lr.ph, label %._crit_edge

.lr.ph:                                           ; preds = %1
  %5 = getelementptr inbounds nuw i8, ptr %0, i64 16
  %6 = getelementptr inbounds nuw i8, ptr %0, i64 88
  %7 = getelementptr inbounds nuw i8, ptr %0, i64 72
  %8 = getelementptr inbounds nuw i8, ptr %0, i64 176
  br label %9

9:                                                ; preds = %.lr.ph, %50
  %indvars.iv = phi i64 [ 0, %.lr.ph ], [ %indvars.iv.next, %50 ]
  %10 = load ptr, ptr %5, align 8, !tbaa !61
  %11 = getelementptr inbounds nuw ptr, ptr %10, i64 %indvars.iv
  %12 = load ptr, ptr %11, align 8, !tbaa !62
  %13 = tail call ptr (...) @Scl_ConReadMan() #11
  %.not46 = icmp eq ptr %13, null
  br i1 %.not46, label %24, label %14

14:                                               ; preds = %9
  %15 = tail call ptr (...) @Scl_ConReadMan() #11
  %16 = getelementptr i8, ptr %15, i64 88
  %.val.i.i = load ptr, ptr %16, align 8, !tbaa !63
  %17 = getelementptr inbounds nuw i32, ptr %.val.i.i, i64 %indvars.iv
  %18 = load i32, ptr %17, align 4, !tbaa !36
  %19 = sitofp i32 %18 to float
  %20 = fdiv float %19, 1.000000e+03
  %21 = getelementptr inbounds nuw i8, ptr %12, i64 108
  %22 = getelementptr inbounds nuw i8, ptr %12, i64 112
  store float %20, ptr %22, align 4, !tbaa !65
  store float %20, ptr %21, align 4, !tbaa !66
  %23 = getelementptr inbounds nuw i8, ptr %12, i64 116
  store float %20, ptr %23, align 4, !tbaa !54
  br label %28

24:                                               ; preds = %9
  %25 = getelementptr inbounds nuw i8, ptr %12, i64 108
  %26 = load ptr, ptr %6, align 8, !tbaa !67
  %27 = getelementptr inbounds nuw %struct.Map_TimeStruct_t_, ptr %26, i64 %indvars.iv
  tail call void @llvm.memcpy.p0.p0.i64(ptr noundef nonnull align 4 dereferenceable(12) %25, ptr noundef nonnull align 4 dereferenceable(12) %27, i64 12, i1 false), !tbaa.struct !68
  br label %28

28:                                               ; preds = %24, %14
  %29 = load ptr, ptr %7, align 8, !tbaa !69
  %.not42 = icmp eq ptr %29, null
  br i1 %.not42, label %.thread45, label %36

.thread45:                                        ; preds = %28
  %30 = getelementptr inbounds nuw i8, ptr %12, i64 108
  %31 = load float, ptr %30, align 4, !tbaa !66
  %32 = fadd float %31, 0.000000e+00
  store float %32, ptr %30, align 4, !tbaa !66
  %33 = getelementptr inbounds nuw i8, ptr %12, i64 112
  %34 = load float, ptr %33, align 4, !tbaa !65
  %35 = fadd float %34, 0.000000e+00
  store float %35, ptr %33, align 4, !tbaa !65
  br label %50

36:                                               ; preds = %28
  %37 = getelementptr inbounds nuw i8, ptr %12, i64 16
  %38 = load i32, ptr %37, align 8, !tbaa !70
  %39 = sext i32 %38 to i64
  %40 = getelementptr inbounds float, ptr %29, i64 %39
  %41 = load float, ptr %40, align 4, !tbaa !37
  %42 = getelementptr inbounds nuw i8, ptr %12, i64 108
  %43 = load float, ptr %42, align 4, !tbaa !66
  %44 = fadd float %41, %43
  store float %44, ptr %42, align 4, !tbaa !66
  %45 = load float, ptr %40, align 4, !tbaa !37
  %46 = getelementptr inbounds nuw i8, ptr %12, i64 112
  %47 = load float, ptr %46, align 4, !tbaa !65
  %48 = fadd float %45, %47
  store float %48, ptr %46, align 4, !tbaa !65
  %49 = load float, ptr %40, align 4, !tbaa !37
  br label %50

50:                                               ; preds = %.thread45, %36
  %51 = phi float [ %48, %36 ], [ %35, %.thread45 ]
  %52 = phi float [ %44, %36 ], [ %32, %.thread45 ]
  %53 = phi float [ %49, %36 ], [ 0.000000e+00, %.thread45 ]
  %54 = getelementptr inbounds nuw i8, ptr %12, i64 96
  %55 = getelementptr inbounds nuw i8, ptr %12, i64 116
  %56 = load float, ptr %55, align 4, !tbaa !54
  %57 = fadd float %53, %56
  store float %57, ptr %55, align 4, !tbaa !54
  %58 = load ptr, ptr %8, align 8, !tbaa !71
  %59 = getelementptr inbounds nuw i8, ptr %58, i64 128
  %60 = load float, ptr %59, align 8, !tbaa !72
  %61 = fadd float %51, %60
  store float %61, ptr %54, align 8, !tbaa !66
  %62 = getelementptr inbounds nuw i8, ptr %58, i64 132
  %63 = load float, ptr %62, align 4, !tbaa !78
  %64 = fadd float %52, %63
  %65 = getelementptr inbounds nuw i8, ptr %12, i64 100
  store float %64, ptr %65, align 4, !tbaa !65
  %66 = fcmp ogt float %61, %64
  %. = select i1 %66, float %61, float %64
  %67 = getelementptr inbounds nuw i8, ptr %12, i64 104
  store float %., ptr %67, align 8, !tbaa !54
  %indvars.iv.next = add nuw nsw i64 %indvars.iv, 1
  %68 = load i32, ptr %2, align 8, !tbaa !60
  %69 = sext i32 %68 to i64
  %70 = icmp slt i64 %indvars.iv.next, %69
  br i1 %70, label %9, label %._crit_edge, !llvm.loop !79

._crit_edge:                                      ; preds = %50, %1
  ret void
}